target datalayout = "e-m:e-p270:32:32-p271:32:32-p272:64:64-i64:64-i128:128-f80:128-n8:16:32:64-S128"
target triple = "x86_64-pc-linux-gnu"

%struct._rio = type { ptr, ptr, ptr, ptr, ptr, i64, i64, i64, i64, %union.anon }
%union.anon = type { %struct.anon.2 }
%struct.anon.2 = type { ptr, i64, ptr, i64, i64 }

@.str.7 = private unnamed_addr constant [43 x i8] c"Unknown length encoding %d in rdbLoadLen()\00", align 1

; Function Attrs: inlinehint nounwind uwtable
define internal i32 @__bswap_32(i32 noundef %0) #6 {
  %2 = alloca i32, align 4
  store i32 %0, ptr %2, align 4, !tbaa !5
  %3 = load i32, ptr %2, align 4, !tbaa !5
  %4 = and i32 %3, -16777216
  %5 = lshr i32 %4, 24
  %6 = load i32, ptr %2, align 4, !tbaa !5
  %7 = and i32 %6, 16711680
  %8 = lshr i32 %7, 8
  %9 = or i32 %5, %8
  %10 = load i32, ptr %2, align 4, !tbaa !5
  %11 = and i32 %10, 65280
  %12 = shl i32 %11, 8
  %13 = or i32 %9, %12
  %14 = load i32, ptr %2, align 4, !tbaa !5
  %15 = and i32 %14, 255
  %16 = shl i32 %15, 24
  %17 = or i32 %13, %16
  ret i32 %17
}

; Function Attrs: inlinehint nounwind uwtable
define internal i64 @rioRead(ptr noundef %0, ptr noundef %1, i64 noundef %2) #6 {
  %4 = alloca i64, align 8
  %5 = alloca ptr, align 8
  %6 = alloca ptr, align 8
  %7 = alloca i64, align 8
  %8 = alloca i64, align 8
  %9 = alloca i32, align 4
  store ptr %0, ptr %5, align 8, !tbaa !53
  store ptr %1, ptr %6, align 8, !tbaa !55
  store i64 %2, ptr %7, align 8, !tbaa !56
  %10 = load ptr, ptr %5, align 8, !tbaa !53
  %11 = getelementptr inbounds nuw %struct._rio, ptr %10, i32 0, i32 6
  %12 = load i64, ptr %11, align 8, !tbaa !57
  %13 = and i64 %12, 5
  %14 = icmp ne i64 %13, 0
  br i1 %14, label %15, label %16

15:                                               ; preds = %3
  store i64 0, ptr %4, align 8
  br label %80

16:                                               ; preds = %3
  br label %17

17:                                               ; preds = %78, %16
  %18 = load i64, ptr %7, align 8, !tbaa !56
  %19 = icmp ne i64 %18, 0
  br i1 %19, label %20, label %79

20:                                               ; preds = %17
  call void @llvm.lifetime.start.p0(i64 8, ptr %8) #15
  %21 = load ptr, ptr %5, align 8, !tbaa !53
  %22 = getelementptr inbounds nuw %struct._rio, ptr %21, i32 0, i32 8
  %23 = load i64, ptr %22, align 8, !tbaa !59
  %24 = icmp ne i64 %23, 0
  br i1 %24, label %25, label %35

25:                                               ; preds = %20
  %26 = load ptr, ptr %5, align 8, !tbaa !53
  %27 = getelementptr inbounds nuw %struct._rio, ptr %26, i32 0, i32 8
  %28 = load i64, ptr %27, align 8, !tbaa !59
  %29 = load i64, ptr %7, align 8, !tbaa !56
  %30 = icmp ult i64 %28, %29
  br i1 %30, label %31, label %35

31:                                               ; preds = %25
  %32 = load ptr, ptr %5, align 8, !tbaa !53
  %33 = getelementptr inbounds nuw %struct._rio, ptr %32, i32 0, i32 8
  %34 = load i64, ptr %33, align 8, !tbaa !59
  br label %37

35:                                               ; preds = %25, %20
  %36 = load i64, ptr %7, align 8, !tbaa !56
  br label %37

37:                                               ; preds = %35, %31
  %38 = phi i64 [ %34, %31 ], [ %36, %35 ]
  store i64 %38, ptr %8, align 8, !tbaa !56
  %39 = load ptr, ptr %5, align 8, !tbaa !53
  %40 = getelementptr inbounds nuw %struct._rio, ptr %39, i32 0, i32 0
  %41 = load ptr, ptr %40, align 8, !tbaa !66
  %42 = load ptr, ptr %5, align 8, !tbaa !53
  %43 = load ptr, ptr %6, align 8, !tbaa !55
  %44 = load i64, ptr %8, align 8, !tbaa !56
  %45 = call i64 %41(ptr noundef %42, ptr noundef %43, i64 noundef %44)
  %46 = icmp eq i64 %45, 0
  br i1 %46, label %47, label %52

47:                                               ; preds = %37
  %48 = load ptr, ptr %5, align 8, !tbaa !53
  %49 = getelementptr inbounds nuw %struct._rio, ptr %48, i32 0, i32 6
  %50 = load i64, ptr %49, align 8, !tbaa !57
  %51 = or i64 %50, 1
  store i64 %51, ptr %49, align 8, !tbaa !57
  store i64 0, ptr %4, align 8
  store i32 1, ptr %9, align 4
  br label %76

52:                                               ; preds = %37
  %53 = load ptr, ptr %5, align 8, !tbaa !53
  %54 = getelementptr inbounds nuw %struct._rio, ptr %53, i32 0, i32 4
  %55 = load ptr, ptr %54, align 8, !tbaa !60
  %56 = icmp ne ptr %55, null
  br i1 %56, label %57, label %64

57:                                               ; preds = %52
  %58 = load ptr, ptr %5, align 8, !tbaa !53
  %59 = getelementptr inbounds nuw %struct._rio, ptr %58, i32 0, i32 4
  %60 = load ptr, ptr %59, align 8, !tbaa !60
  %61 = load ptr, ptr %5, align 8, !tbaa !53
  %62 = load ptr, ptr %6, align 8, !tbaa !55
  %63 = load i64, ptr %8, align 8, !tbaa !56
  call void %60(ptr noundef %61, ptr noundef %62, i64 noundef %63)
  br label %64

64:                                               ; preds = %57, %52
  %65 = load ptr, ptr %6, align 8, !tbaa !55
  %66 = load i64, ptr %8, align 8, !tbaa !56
  %67 = getelementptr inbounds nuw i8, ptr %65, i64 %66
  store ptr %67, ptr %6, align 8, !tbaa !55
  %68 = load i64, ptr %8, align 8, !tbaa !56
  %69 = load i64, ptr %7, align 8, !tbaa !56
  %70 = sub i64 %69, %68
  store i64 %70, ptr %7, align 8, !tbaa !56
  %71 = load i64, ptr %8, align 8, !tbaa !56
  %72 = load ptr, ptr %5, align 8, !tbaa !53
  %73 = getelementptr inbounds nuw %struct._rio, ptr %72, i32 0, i32 7
  %74 = load i64, ptr %73, align 8, !tbaa !62
  %75 = add i64 %74, %71
  store i64 %75, ptr %73, align 8, !tbaa !62
  store i32 0, ptr %9, align 4
  br label %76

76:                                               ; preds = %64, %47
  call void @llvm.lifetime.end.p0(i64 8, ptr %8) #15
  %77 = load i32, ptr %9, align 4
  switch i32 %77, label %82 [
    i32 0, label %78
    i32 1, label %80
  ]

78:                                               ; preds = %76
  br label %17, !llvm.loop !67

79:                                               ; preds = %17
  store i64 1, ptr %4, align 8
  br label %80

80:                                               ; preds = %79, %76, %15
  %81 = load i64, ptr %4, align 8
  ret i64 %81

82:                                               ; preds = %76
  unreachable
}

; Function Attrs: nounwind uwtable
define dso_local i32 @rdbLoadLenByRef(ptr noundef %0, ptr noundef %1, ptr noundef %2) #0 {
  %4 = alloca i32, align 4
  %5 = alloca ptr, align 8
  %6 = alloca ptr, align 8
  %7 = alloca ptr, align 8
  %8 = alloca [2 x i8], align 1
  %9 = alloca i32, align 4
  %10 = alloca i32, align 4
  %11 = alloca i32, align 4
  %12 = alloca i64, align 8
  store ptr %0, ptr %5, align 8, !tbaa !53
  store ptr %1, ptr %6, align 8, !tbaa !69
  store ptr %2, ptr %7, align 8, !tbaa !71
  call void @llvm.lifetime.start.p0(i64 2, ptr %8) #15
  call void @llvm.lifetime.start.p0(i64 4, ptr %9) #15
  %13 = load ptr, ptr %6, align 8, !tbaa !69
  %14 = icmp ne ptr %13, null
  br i1 %14, label %15, label %17

15:                                               ; preds = %3
  %16 = load ptr, ptr %6, align 8, !tbaa !69
  store i32 0, ptr %16, align 4, !tbaa !5
  br label %17

17:                                               ; preds = %15, %3
  %18 = load ptr, ptr %5, align 8, !tbaa !53
  %19 = getelementptr inbounds [2 x i8], ptr %8, i64 0, i64 0
  %20 = call i64 @rioRead(ptr noundef %18, ptr noundef %19, i64 noundef 1)
  %21 = icmp eq i64 %20, 0
  br i1 %21, label %22, label %23

22:                                               ; preds = %17
  store i32 -1, ptr %4, align 4
  store i32 1, ptr %10, align 4
  br label %117

23:                                               ; preds = %17
  %24 = getelementptr inbounds [2 x i8], ptr %8, i64 0, i64 0
  %25 = load i8, ptr %24, align 1, !tbaa !65
  %26 = zext i8 %25 to i32
  %27 = and i32 %26, 192
  %28 = ashr i32 %27, 6
  store i32 %28, ptr %9, align 4, !tbaa !5
  %29 = load i32, ptr %9, align 4, !tbaa !5
  %30 = icmp eq i32 %29, 3
  br i1 %30, label %31, label %43

31:                                               ; preds = %23
  %32 = load ptr, ptr %6, align 8, !tbaa !69
  %33 = icmp ne ptr %32, null
  br i1 %33, label %34, label %36

34:                                               ; preds = %31
  %35 = load ptr, ptr %6, align 8, !tbaa !69
  store i32 1, ptr %35, align 4, !tbaa !5
  br label %36

36:                                               ; preds = %34, %31
  %37 = getelementptr inbounds [2 x i8], ptr %8, i64 0, i64 0
  %38 = load i8, ptr %37, align 1, !tbaa !65
  %39 = zext i8 %38 to i32
  %40 = and i32 %39, 63
  %41 = sext i32 %40 to i64
  %42 = load ptr, ptr %7, align 8, !tbaa !71
  store i64 %41, ptr %42, align 8, !tbaa !56
  br label %116

43:                                               ; preds = %23
  %44 = load i32, ptr %9, align 4, !tbaa !5
  %45 = icmp eq i32 %44, 0
  br i1 %45, label %46, label %53

46:                                               ; preds = %43
  %47 = getelementptr inbounds [2 x i8], ptr %8, i64 0, i64 0
  %48 = load i8, ptr %47, align 1, !tbaa !65
  %49 = zext i8 %48 to i32
  %50 = and i32 %49, 63
  %51 = sext i32 %50 to i64
  %52 = load ptr, ptr %7, align 8, !tbaa !71
  store i64 %51, ptr %52, align 8, !tbaa !56
  br label %115

53:                                               ; preds = %43
  %54 = load i32, ptr %9, align 4, !tbaa !5
  %55 = icmp eq i32 %54, 1
  br i1 %55, label %56, label %75

56:                                               ; preds = %53
  %57 = load ptr, ptr %5, align 8, !tbaa !53
  %58 = getelementptr inbounds [2 x i8], ptr %8, i64 0, i64 0
  %59 = getelementptr inbounds i8, ptr %58, i64 1
  %60 = call i64 @rioRead(ptr noundef %57, ptr noundef %59, i64 noundef 1)
  %61 = icmp eq i64 %60, 0
  br i1 %61, label %62, label %63

62:                                               ; preds = %56
  store i32 -1, ptr %4, align 4
  store i32 1, ptr %10, align 4
  br label %117

63:                                               ; preds = %56
  %64 = getelementptr inbounds [2 x i8], ptr %8, i64 0, i64 0
  %65 = load i8, ptr %64, align 1, !tbaa !65
  %66 = zext i8 %65 to i32
  %67 = and i32 %66, 63
  %68 = shl i32 %67, 8
  %69 = getelementptr inbounds [2 x i8], ptr %8, i64 0, i64 1
  %70 = load i8, ptr %69, align 1, !tbaa !65
  %71 = zext i8 %70 to i32
  %72 = or i32 %68, %71
  %73 = sext i32 %72 to i64
  %74 = load ptr, ptr %7, align 8, !tbaa !71
  store i64 %73, ptr %74, align 8, !tbaa !56
  br label %114

75:                                               ; preds = %53
  %76 = getelementptr inbounds [2 x i8], ptr %8, i64 0, i64 0
  %77 = load i8, ptr %76, align 1, !tbaa !65
  %78 = zext i8 %77 to i32
  %79 = icmp eq i32 %78, 128
  br i1 %79, label %80, label %93

80:                                               ; preds = %75
  call void @llvm.lifetime.start.p0(i64 4, ptr %11) #15
  %81 = load ptr, ptr %5, align 8, !tbaa !53
  %82 = call i64 @rioRead(ptr noundef %81, ptr noundef %11, i64 noundef 4)
  %83 = icmp eq i64 %82, 0
  br i1 %83, label %84, label %85

84:                                               ; preds = %80
  store i32 -1, ptr %4, align 4
  store i32 1, ptr %10, align 4
  br label %90

85:                                               ; preds = %80
  %86 = load i32, ptr %11, align 4, !tbaa !5
  %87 = call i32 @__bswap_32(i32 noundef %86)
  %88 = zext i32 %87 to i64
  %89 = load ptr, ptr %7, align 8, !tbaa !71
  store i64 %88, ptr %89, align 8, !tbaa !56
  store i32 0, ptr %10, align 4
  br label %90

90:                                               ; preds = %85, %84
  call void @llvm.lifetime.end.p0(i64 4, ptr %11) #15
  %91 = load i32, ptr %10, align 4
  switch i32 %91, label %117 [
    i32 0, label %92
  ]

92:                                               ; preds = %90
  br label %113

93:                                               ; preds = %75
  %94 = getelementptr inbounds [2 x i8], ptr %8, i64 0, i64 0
  %95 = load i8, ptr %94, align 1, !tbaa !65
  %96 = zext i8 %95 to i32
  %97 = icmp eq i32 %96, 129
  br i1 %97, label %98, label %110

98:                                               ; preds = %93
  call void @llvm.lifetime.start.p0(i64 8, ptr %12) #15
  %99 = load ptr, ptr %5, align 8, !tbaa !53
  %100 = call i64 @rioRead(ptr noundef %99, ptr noundef %12, i64 noundef 8)
  %101 = icmp eq i64 %100, 0
  br i1 %101, label %102, label %103

102:                                              ; preds = %98
  store i32 -1, ptr %4, align 4
  store i32 1, ptr %10, align 4
  br label %107

103:                                              ; preds = %98
  %104 = load i64, ptr %12, align 8, !tbaa !56
  %105 = call i64 @intrev64(i64 noundef %104)
  %106 = load ptr, ptr %7, align 8, !tbaa !71
  store i64 %105, ptr %106, align 8, !tbaa !56
  store i32 0, ptr %10, align 4
  br label %107

107:                                              ; preds = %103, %102
  call void @llvm.lifetime.end.p0(i64 8, ptr %12) #15
  %108 = load i32, ptr %10, align 4
  switch i32 %108, label %117 [
    i32 0, label %109
  ]

109:                                              ; preds = %107
  br label %112

110:                                              ; preds = %93
  %111 = load i32, ptr %9, align 4, !tbaa !5
  call void (i32, i32, ptr, ...) @rdbReportError(i32 noundef 1, i32 noundef 229, ptr noundef @.str.7, i32 noundef %111)
  store i32 -1, ptr %4, align 4
  store i32 1, ptr %10, align 4
  br label %117

112:                                              ; preds = %109
  br label %113

113:                                              ; preds = %112, %92
  br label %114

114:                                              ; preds = %113, %63
  br label %115

115:                                              ; preds = %114, %46
  br label %116

116:                                              ; preds = %115, %36
  store i32 0, ptr %4, align 4
  store i32 1, ptr %10, align 4
  br label %117

117:                                              ; preds = %116, %110, %107, %90, %62, %22
  call void @llvm.lifetime.end.p0(i64 4, ptr %9) #15
  call void @llvm.lifetime.end.p0(i64 2, ptr %8) #15
  %118 = load i32, ptr %4, align 4
  ret i32 %118
}