; Function Attrs: nounwind uwtable
define dso_local range(i32 -1, 1) i32 @rdbLoadLenByRef(ptr noundef %0, ptr noundef writeonly captures(address_is_null) %1, ptr noundef writeonly captures(none) %2) local_unnamed_addr #0 {
  %4 = alloca [2 x i8], align 1
  %5 = alloca i32, align 4
  %6 = alloca i64, align 8
  call void @llvm.lifetime.start.p0(i64 2, ptr nonnull %4) #23
  %.not = icmp eq ptr %1, null
  br i1 %.not, label %8, label %7

7:                                                ; preds = %3
  store i32 0, ptr %1, align 4, !tbaa !51
  br label %8

8:                                                ; preds = %7, %3
  %9 = getelementptr inbounds nuw i8, ptr %0, i64 48
  %10 = load i64, ptr %9, align 8, !tbaa !53
  %11 = and i64 %10, 5
  %.not.i = icmp eq i64 %11, 0
  br i1 %.not.i, label %.preheader.i, label %rioRead.exit.thread

.preheader.i:                                     ; preds = %8
  %12 = getelementptr inbounds nuw i8, ptr %0, i64 64
  %13 = getelementptr inbounds nuw i8, ptr %0, i64 32
  %14 = getelementptr inbounds nuw i8, ptr %0, i64 56
  br label %15

15:                                               ; preds = %27, %.preheader.i
  %.02539.i = phi i64 [ 1, %.preheader.i ], [ %29, %27 ]
  %.02738.i = phi ptr [ %4, %.preheader.i ], [ %28, %27 ]
  %16 = load i64, ptr %12, align 8, !tbaa !55
  %.not32.not.i = icmp eq i64 %16, 0
  %17 = call i64 @llvm.umin.i64(i64 %16, i64 %.02539.i)
  %18 = select i1 %.not32.not.i, i64 %.02539.i, i64 %17
  %19 = load ptr, ptr %0, align 8, !tbaa !60
  %20 = call i64 %19(ptr noundef nonnull %0, ptr noundef %.02738.i, i64 noundef %18) #23
  %21 = icmp eq i64 %20, 0
  br i1 %21, label %.thread.i, label %24

.thread.i:                                        ; preds = %15
  %22 = load i64, ptr %9, align 8, !tbaa !53
  %23 = or i64 %22, 1
  store i64 %23, ptr %9, align 8, !tbaa !53
  br label %rioRead.exit.thread

24:                                               ; preds = %15
  %25 = load ptr, ptr %13, align 8, !tbaa !56
  %.not33.i = icmp eq ptr %25, null
  br i1 %.not33.i, label %27, label %26

26:                                               ; preds = %24
  call void %25(ptr noundef nonnull %0, ptr noundef %.02738.i, i64 noundef %18) #23
  br label %27

27:                                               ; preds = %26, %24
  %28 = getelementptr inbounds nuw i8, ptr %.02738.i, i64 %18
  %29 = sub i64 %.02539.i, %18
  %30 = load i64, ptr %14, align 8, !tbaa !58
  %31 = add i64 %30, %18
  store i64 %31, ptr %14, align 8, !tbaa !58
  %.not31.i = icmp eq i64 %29, 0
  br i1 %.not31.i, label %rioRead.exit, label %15

rioRead.exit:                                     ; preds = %27
  %32 = load i8, ptr %4, align 1, !tbaa !59
  %33 = lshr i8 %32, 6
  %34 = icmp eq i8 %33, 3
  br i1 %34, label %35, label %40

35:                                               ; preds = %rioRead.exit
  br i1 %.not, label %37, label %36

36:                                               ; preds = %35
  store i32 1, ptr %1, align 4, !tbaa !51
  br label %37

37:                                               ; preds = %36, %35
  %38 = and i8 %32, 63
  %39 = zext nneg i8 %38 to i64
  store i64 %39, ptr %2, align 8, !tbaa !61
  br label %rioRead.exit.thread

40:                                               ; preds = %rioRead.exit
  %41 = icmp ult i8 %32, 64
  br i1 %41, label %42, label %44

42:                                               ; preds = %40
  %43 = zext nneg i8 %32 to i64
  store i64 %43, ptr %2, align 8, !tbaa !61
  br label %rioRead.exit.thread

44:                                               ; preds = %40
  %45 = icmp eq i8 %33, 1
  br i1 %45, label %46, label %73

46:                                               ; preds = %44
  %47 = getelementptr inbounds nuw i8, ptr %4, i64 1
  %48 = load i64, ptr %9, align 8, !tbaa !53
  %49 = and i64 %48, 5
  %.not.i30 = icmp eq i64 %49, 0
  br i1 %.not.i30, label %.preheader.i32, label %rioRead.exit.thread

.preheader.i32:                                   ; preds = %46, %61
  %.02539.i33 = phi i64 [ %63, %61 ], [ 1, %46 ]
  %.02738.i34 = phi ptr [ %62, %61 ], [ %47, %46 ]
  %50 = load i64, ptr %12, align 8, !tbaa !55
  %.not32.not.i35 = icmp eq i64 %50, 0
  %51 = call i64 @llvm.umin.i64(i64 %50, i64 %.02539.i33)
  %52 = select i1 %.not32.not.i35, i64 %.02539.i33, i64 %51
  %53 = load ptr, ptr %0, align 8, !tbaa !60
  %54 = call i64 %53(ptr noundef nonnull %0, ptr noundef %.02738.i34, i64 noundef %52) #23
  %55 = icmp eq i64 %54, 0
  br i1 %55, label %.thread.i38, label %58

.thread.i38:                                      ; preds = %.preheader.i32
  %56 = load i64, ptr %9, align 8, !tbaa !53
  %57 = or i64 %56, 1
  store i64 %57, ptr %9, align 8, !tbaa !53
  br label %rioRead.exit.thread

58:                                               ; preds = %.preheader.i32
  %59 = load ptr, ptr %13, align 8, !tbaa !56
  %.not33.i36 = icmp eq ptr %59, null
  br i1 %.not33.i36, label %61, label %60

60:                                               ; preds = %58
  call void %59(ptr noundef nonnull %0, ptr noundef %.02738.i34, i64 noundef %52) #23
  br label %61

61:                                               ; preds = %60, %58
  %62 = getelementptr inbounds nuw i8, ptr %.02738.i34, i64 %52
  %63 = sub i64 %.02539.i33, %52
  %64 = load i64, ptr %14, align 8, !tbaa !58
  %65 = add i64 %64, %52
  store i64 %65, ptr %14, align 8, !tbaa !58
  %.not31.i37 = icmp eq i64 %63, 0
  br i1 %.not31.i37, label %rioRead.exit39, label %.preheader.i32

rioRead.exit39:                                   ; preds = %61
  %66 = load i8, ptr %4, align 1, !tbaa !59
  %67 = and i8 %66, 63
  %68 = zext nneg i8 %67 to i64
  %69 = shl nuw nsw i64 %68, 8
  %70 = load i8, ptr %47, align 1, !tbaa !59
  %71 = zext i8 %70 to i64
  %72 = or disjoint i64 %69, %71
  store i64 %72, ptr %2, align 8, !tbaa !61
  br label %rioRead.exit.thread

73:                                               ; preds = %44
  switch i8 %32, label %117 [
    i8 -128, label %74
    i8 -127, label %96
  ]

74:                                               ; preds = %73
  call void @llvm.lifetime.start.p0(i64 4, ptr nonnull %5) #23
  %75 = load i64, ptr %9, align 8, !tbaa !53
  %76 = and i64 %75, 5
  %.not.i40 = icmp eq i64 %76, 0
  br i1 %.not.i40, label %.preheader.i42, label %.critedge

.preheader.i42:                                   ; preds = %74, %88
  %.02539.i43 = phi i64 [ %90, %88 ], [ 4, %74 ]
  %.02738.i44 = phi ptr [ %89, %88 ], [ %5, %74 ]
  %77 = load i64, ptr %12, align 8, !tbaa !55
  %.not32.not.i45 = icmp eq i64 %77, 0
  %78 = call i64 @llvm.umin.i64(i64 %77, i64 %.02539.i43)
  %79 = select i1 %.not32.not.i45, i64 %.02539.i43, i64 %78
  %80 = load ptr, ptr %0, align 8, !tbaa !60
  %81 = call i64 %80(ptr noundef nonnull %0, ptr noundef %.02738.i44, i64 noundef %79) #23
  %82 = icmp eq i64 %81, 0
  br i1 %82, label %.thread.i48, label %85

.thread.i48:                                      ; preds = %.preheader.i42
  %83 = load i64, ptr %9, align 8, !tbaa !53
  %84 = or i64 %83, 1
  store i64 %84, ptr %9, align 8, !tbaa !53
  br label %.critedge

85:                                               ; preds = %.preheader.i42
  %86 = load ptr, ptr %13, align 8, !tbaa !56
  %.not33.i46 = icmp eq ptr %86, null
  br i1 %.not33.i46, label %88, label %87

87:                                               ; preds = %85
  call void %86(ptr noundef nonnull %0, ptr noundef %.02738.i44, i64 noundef %79) #23
  br label %88

88:                                               ; preds = %87, %85
  %89 = getelementptr inbounds nuw i8, ptr %.02738.i44, i64 %79
  %90 = sub i64 %.02539.i43, %79
  %91 = load i64, ptr %14, align 8, !tbaa !58
  %92 = add i64 %91, %79
  store i64 %92, ptr %14, align 8, !tbaa !58
  %.not31.i47 = icmp eq i64 %90, 0
  br i1 %.not31.i47, label %rioRead.exit49, label %.preheader.i42

rioRead.exit49:                                   ; preds = %88
  %93 = load i32, ptr %5, align 4, !tbaa !51
  %94 = call noundef i32 @llvm.bswap.i32(i32 %93)
  %95 = zext i32 %94 to i64
  store i64 %95, ptr %2, align 8, !tbaa !61
  call void @llvm.lifetime.end.p0(i64 4, ptr nonnull %5) #23
  br label %rioRead.exit.thread

96:                                               ; preds = %73
  call void @llvm.lifetime.start.p0(i64 8, ptr nonnull %6) #23
  %97 = load i64, ptr %9, align 8, !tbaa !53
  %98 = and i64 %97, 5
  %.not.i50 = icmp eq i64 %98, 0
  br i1 %.not.i50, label %.preheader.i52, label %.critedge29

.preheader.i52:                                   ; preds = %96, %110
  %.02539.i53 = phi i64 [ %112, %110 ], [ 8, %96 ]
  %.02738.i54 = phi ptr [ %111, %110 ], [ %6, %96 ]
  %99 = load i64, ptr %12, align 8, !tbaa !55
  %.not32.not.i55 = icmp eq i64 %99, 0
  %100 = call i64 @llvm.umin.i64(i64 %99, i64 %.02539.i53)
  %101 = select i1 %.not32.not.i55, i64 %.02539.i53, i64 %100
  %102 = load ptr, ptr %0, align 8, !tbaa !60
  %103 = call i64 %102(ptr noundef nonnull %0, ptr noundef %.02738.i54, i64 noundef %101) #23
  %104 = icmp eq i64 %103, 0
  br i1 %104, label %.thread.i58, label %107

.thread.i58:                                      ; preds = %.preheader.i52
  %105 = load i64, ptr %9, align 8, !tbaa !53
  %106 = or i64 %105, 1
  store i64 %106, ptr %9, align 8, !tbaa !53
  br label %.critedge29

107:                                              ; preds = %.preheader.i52
  %108 = load ptr, ptr %13, align 8, !tbaa !56
  %.not33.i56 = icmp eq ptr %108, null
  br i1 %.not33.i56, label %110, label %109

109:                                              ; preds = %107
  call void %108(ptr noundef nonnull %0, ptr noundef %.02738.i54, i64 noundef %101) #23
  br label %110

110:                                              ; preds = %109, %107
  %111 = getelementptr inbounds nuw i8, ptr %.02738.i54, i64 %101
  %112 = sub i64 %.02539.i53, %101
  %113 = load i64, ptr %14, align 8, !tbaa !58
  %114 = add i64 %113, %101
  store i64 %114, ptr %14, align 8, !tbaa !58
  %.not31.i57 = icmp eq i64 %112, 0
  br i1 %.not31.i57, label %rioRead.exit59, label %.preheader.i52

rioRead.exit59:                                   ; preds = %110
  %115 = load i64, ptr %6, align 8, !tbaa !61
  %116 = call i64 @intrev64(i64 noundef %115) #23
  store i64 %116, ptr %2, align 8, !tbaa !61
  call void @llvm.lifetime.end.p0(i64 8, ptr nonnull %6) #23
  br label %rioRead.exit.thread

117:                                              ; preds = %73
  call void (i32, i32, ptr, ...) @rdbReportError(i32 noundef 1, i32 noundef 229, ptr noundef nonnull @.str.7, i32 noundef 2)
  br label %rioRead.exit.thread

.critedge:                                        ; preds = %74, %.thread.i48
  call void @llvm.lifetime.end.p0(i64 4, ptr nonnull %5) #23
  br label %rioRead.exit.thread

.critedge29:                                      ; preds = %96, %.thread.i58
  call void @llvm.lifetime.end.p0(i64 8, ptr nonnull %6) #23
  br label %rioRead.exit.thread

rioRead.exit.thread:                              ; preds = %.thread.i38, %46, %.thread.i, %8, %37, %rioRead.exit39, %42, %rioRead.exit49, %rioRead.exit59, %.critedge29, %.critedge, %117
  %.020 = phi i32 [ -1, %117 ], [ -1, %.critedge ], [ -1, %.critedge29 ], [ 0, %rioRead.exit59 ], [ 0, %rioRead.exit49 ], [ 0, %42 ], [ 0, %rioRead.exit39 ], [ 0, %37 ], [ -1, %8 ], [ -1, %.thread.i ], [ -1, %46 ], [ -1, %.thread.i38 ]
  call void @llvm.lifetime.end.p0(i64 2, ptr nonnull %4) #23
  ret i32 %.020
}